target datalayout = "e-m:e-p270:32:32-p271:32:32-p272:64:64-i64:64-i128:128-f80:128-n8:16:32:64-S128"
target triple = "x86_64-pc-linux-gnu"

%"class.pxrInternal_v0_24__pxrReserved__::TfToken" = type { %"class.pxrInternal_v0_24__pxrReserved__::TfPointerAndBits" }
%"class.pxrInternal_v0_24__pxrReserved__::TfPointerAndBits" = type { ptr }
%"class.pxrInternal_v0_24__pxrReserved__::TfType" = type { ptr }
%"struct.pxrInternal_v0_24__pxrReserved__::UsdSchemaRegistry::SchemaInfo" = type { %"class.pxrInternal_v0_24__pxrReserved__::TfToken", %"class.pxrInternal_v0_24__pxrReserved__::TfType", %"class.pxrInternal_v0_24__pxrReserved__::TfToken", i32, i32 }

; Function Attrs: mustprogress nounwind uwtable
define internal noundef zeroext i1 @_ZN32pxrInternal_v0_24__pxrReserved__L21_IsConcreteSchemaKindENS_13UsdSchemaKindE(i32 noundef %0) #1 {
  %2 = alloca i32, align 4
  store i32 %0, ptr %2, align 4
  %3 = load i32, ptr %2, align 4
  %4 = icmp eq i32 %3, 3
  ret i1 %4
}

; Function Attrs: mustprogress uwtable
define noundef i32 @_ZN32pxrInternal_v0_24__pxrReserved__17UsdSchemaRegistry13GetSchemaKindERKNS_7TfTokenE(ptr noundef nonnull align 8 dereferenceable(8) %0) #0 align 2 {
  %2 = alloca ptr, align 8
  %3 = alloca ptr, align 8
  store ptr %0, ptr %2, align 8
  %4 = load ptr, ptr %2, align 8
  %5 = call noundef ptr @_ZN32pxrInternal_v0_24__pxrReserved__17UsdSchemaRegistry14FindSchemaInfoERKNS_7TfTokenE(ptr noundef nonnull align 8 dereferenceable(8) %4)
  store ptr %5, ptr %3, align 8
  %6 = load ptr, ptr %3, align 8
  %7 = icmp ne ptr %6, null
  br i1 %7, label %8, label %12

8:                                                ; preds = %1
  %9 = load ptr, ptr %3, align 8
  %10 = getelementptr inbounds nuw %"struct.pxrInternal_v0_24__pxrReserved__::UsdSchemaRegistry::SchemaInfo", ptr %9, i32 0, i32 4
  %11 = load i32, ptr %10, align 4
  br label %13

12:                                               ; preds = %1
  br label %13

13:                                               ; preds = %12, %8
  %14 = phi i32 [ %11, %8 ], [ 0, %12 ]
  ret i32 %14
}

; Function Attrs: mustprogress uwtable
define noundef zeroext i1 @_ZN32pxrInternal_v0_24__pxrReserved__17UsdSchemaRegistry10IsConcreteERKNS_7TfTokenE(ptr noundef nonnull align 8 dereferenceable(8) %0) #0 align 2 {
  %2 = alloca ptr, align 8
  store ptr %0, ptr %2, align 8
  %3 = load ptr, ptr %2, align 8
  %4 = call noundef i32 @_ZN32pxrInternal_v0_24__pxrReserved__17UsdSchemaRegistry13GetSchemaKindERKNS_7TfTokenE(ptr noundef nonnull align 8 dereferenceable(8) %3)
  %5 = call noundef zeroext i1 @_ZN32pxrInternal_v0_24__pxrReserved__L21_IsConcreteSchemaKindENS_13UsdSchemaKindE(i32 noundef %4)
  ret i1 %5
}